; Function Attrs: mustprogress nounwind uwtable
define hidden void @_ZNK4llvh2cl6parserINSt7__cxx1112basic_stringIcSt11char_traitsIcESaIcEEEE15printOptionDiffERKNS0_6OptionENS_9StringRefERKNS0_11OptionValueIS7_EEm(ptr nocapture nonnull readnone align 8 %this, ptr nocapture noundef nonnull readonly align 8 dereferenceable(145) %O, ptr %V.coerce0, i64 %V.coerce1, ptr noundef nonnull align 8 dereferenceable(48) %D, i64 noundef %GlobalWidth) local_unnamed_addr #0 align 2 {
entry:
  tail call void @_ZNK4llvh2cl17basic_parser_impl15printOptionNameERKNS0_6OptionEm(ptr nonnull align 8 poison, ptr noundef nonnull align 8 dereferenceable(145) %O, i64 noundef %GlobalWidth)
  %call = tail call noundef nonnull align 8 dereferenceable(36) ptr @_ZN4llvh4outsEv() #27
  %OutBufEnd.i5.i = getelementptr inbounds i8, ptr %call, i64 16
  %0 = load ptr, ptr %OutBufEnd.i5.i, align 8
  %OutBufCur.i6.i = getelementptr inbounds i8, ptr %call, i64 24
  %1 = load ptr, ptr %OutBufCur.i6.i, align 8
  %sub.ptr.lhs.cast.i7.i = ptrtoint ptr %0 to i64
  %sub.ptr.rhs.cast.i8.i = ptrtoint ptr %1 to i64
  %sub.ptr.sub.i9.i = sub i64 %sub.ptr.lhs.cast.i7.i, %sub.ptr.rhs.cast.i8.i
  %cmp.i.i = icmp ult i64 %sub.ptr.sub.i9.i, 2
  br i1 %cmp.i.i, label %if.then.i.i, label %if.then4.i.i

if.then.i.i:                                      ; preds = %entry
  %call3.i.i = tail call noundef nonnull align 8 dereferenceable(36) ptr @_ZN4llvh11raw_ostream5writeEPKcm(ptr noundef nonnull align 8 dereferenceable(36) %call, ptr noundef nonnull @.str.28, i64 noundef 2) #27
  %OutBufCur.i.phi.trans.insert = getelementptr inbounds i8, ptr %call3.i.i, i64 24
  %.pre = load ptr, ptr %OutBufCur.i.phi.trans.insert, align 8
  br label %_ZN4llvh11raw_ostreamlsEPKc.exit

if.then4.i.i:                                     ; preds = %entry
  store i16 8253, ptr %1, align 1
  %2 = load ptr, ptr %OutBufCur.i6.i, align 8
  %add.ptr.i.i = getelementptr inbounds i8, ptr %2, i64 2
  store ptr %add.ptr.i.i, ptr %OutBufCur.i6.i, align 8
  br label %_ZN4llvh11raw_ostreamlsEPKc.exit

_ZN4llvh11raw_ostreamlsEPKc.exit:                 ; preds = %if.then.i.i, %if.then4.i.i
  %3 = phi ptr [ %.pre, %if.then.i.i ], [ %add.ptr.i.i, %if.then4.i.i ]
  %phi.call.i = phi ptr [ %call3.i.i, %if.then.i.i ], [ %call, %if.then4.i.i ]
  %OutBufEnd.i = getelementptr inbounds i8, ptr %phi.call.i, i64 16
  %4 = load ptr, ptr %OutBufEnd.i, align 8
  %OutBufCur.i = getelementptr inbounds i8, ptr %phi.call.i, i64 24
  %sub.ptr.lhs.cast.i = ptrtoint ptr %4 to i64
  %sub.ptr.rhs.cast.i = ptrtoint ptr %3 to i64
  %sub.ptr.sub.i = sub i64 %sub.ptr.lhs.cast.i, %sub.ptr.rhs.cast.i
  %cmp.i = icmp ult i64 %sub.ptr.sub.i, %V.coerce1
  br i1 %cmp.i, label %if.then.i, label %if.end.i

if.then.i:                                        ; preds = %_ZN4llvh11raw_ostreamlsEPKc.exit
  %call3.i = tail call noundef nonnull align 8 dereferenceable(36) ptr @_ZN4llvh11raw_ostream5writeEPKcm(ptr noundef nonnull align 8 dereferenceable(36) %phi.call.i, ptr noundef %V.coerce0, i64 noundef %V.coerce1) #27
  br label %_ZN4llvh11raw_ostreamlsENS_9StringRefE.exit

if.end.i:                                         ; preds = %_ZN4llvh11raw_ostreamlsEPKc.exit
  %tobool.not.i = icmp eq i64 %V.coerce1, 0
  br i1 %tobool.not.i, label %_ZN4llvh11raw_ostreamlsENS_9StringRefE.exit, label %if.then4.i

if.then4.i:                                       ; preds = %if.end.i
  tail call void @llvm.memcpy.p0.p0.i64(ptr align 1 %3, ptr align 1 %V.coerce0, i64 %V.coerce1, i1 false)
  %5 = load ptr, ptr %OutBufCur.i, align 8
  %add.ptr.i = getelementptr inbounds i8, ptr %5, i64 %V.coerce1
  store ptr %add.ptr.i, ptr %OutBufCur.i, align 8
  br label %_ZN4llvh11raw_ostreamlsENS_9StringRefE.exit

_ZN4llvh11raw_ostreamlsENS_9StringRefE.exit:      ; preds = %if.then.i, %if.end.i, %if.then4.i
  %cmp = icmp ult i64 %V.coerce1, 8
  %6 = trunc i64 %V.coerce1 to i32
  %7 = sub nuw nsw i32 8, %6
  %cond = select i1 %cmp, i32 %7, i32 0
  %call6 = tail call noundef nonnull align 8 dereferenceable(36) ptr @_ZN4llvh4outsEv() #27
  %call7 = tail call noundef nonnull align 8 dereferenceable(36) ptr @_ZN4llvh11raw_ostream6indentEj(ptr noundef nonnull align 8 dereferenceable(36) %call6, i32 noundef %cond) #27
  %OutBufEnd.i5.i5 = getelementptr inbounds i8, ptr %call7, i64 16
  %8 = load ptr, ptr %OutBufEnd.i5.i5, align 8
  %OutBufCur.i6.i6 = getelementptr inbounds i8, ptr %call7, i64 24
  %9 = load ptr, ptr %OutBufCur.i6.i6, align 8
  %sub.ptr.lhs.cast.i7.i7 = ptrtoint ptr %8 to i64
  %sub.ptr.rhs.cast.i8.i8 = ptrtoint ptr %9 to i64
  %sub.ptr.sub.i9.i9 = sub i64 %sub.ptr.lhs.cast.i7.i7, %sub.ptr.rhs.cast.i8.i8
  %cmp.i.i10 = icmp ult i64 %sub.ptr.sub.i9.i9, 11
  br i1 %cmp.i.i10, label %if.then.i.i16, label %if.then4.i.i13

if.then.i.i16:                                    ; preds = %_ZN4llvh11raw_ostreamlsENS_9StringRefE.exit
  %call3.i.i17 = tail call noundef nonnull align 8 dereferenceable(36) ptr @_ZN4llvh11raw_ostream5writeEPKcm(ptr noundef nonnull align 8 dereferenceable(36) %call7, ptr noundef nonnull @.str.29, i64 noundef 11) #27
  br label %_ZN4llvh11raw_ostreamlsEPKc.exit18

if.then4.i.i13:                                   ; preds = %_ZN4llvh11raw_ostreamlsENS_9StringRefE.exit
  tail call void @llvm.memcpy.p0.p0.i64(ptr noundef nonnull align 1 dereferenceable(11) %9, ptr noundef nonnull align 1 dereferenceable(11) @.str.29, i64 11, i1 false)
  %10 = load ptr, ptr %OutBufCur.i6.i6, align 8
  %add.ptr.i.i14 = getelementptr inbounds i8, ptr %10, i64 11
  store ptr %add.ptr.i.i14, ptr %OutBufCur.i6.i6, align 8
  br label %_ZN4llvh11raw_ostreamlsEPKc.exit18

_ZN4llvh11raw_ostreamlsEPKc.exit18:               ; preds = %if.then.i.i16, %if.then4.i.i13
  %Valid.i = getelementptr inbounds i8, ptr %D, i64 40
  %11 = load i8, ptr %Valid.i, align 8
  %12 = and i8 %11, 1
  %tobool.i.not = icmp eq i8 %12, 0
  %call13 = tail call noundef nonnull align 8 dereferenceable(36) ptr @_ZN4llvh4outsEv() #27
  br i1 %tobool.i.not, label %if.else, label %if.then

if.then:                                          ; preds = %_ZN4llvh11raw_ostreamlsEPKc.exit18
  %Value.i = getelementptr inbounds i8, ptr %D, i64 8
  %call.i = tail call noundef ptr @_ZNKSt7__cxx1112basic_stringIcSt11char_traitsIcESaIcEE4dataEv(ptr noundef nonnull align 8 dereferenceable(32) %Value.i) #27
  %call2.i = tail call noundef i64 @_ZNKSt7__cxx1112basic_stringIcSt11char_traitsIcESaIcEE6lengthEv(ptr noundef nonnull align 8 dereferenceable(32) %Value.i) #27
  %call3.i19 = tail call noundef nonnull align 8 dereferenceable(36) ptr @_ZN4llvh11raw_ostream5writeEPKcm(ptr noundef nonnull align 8 dereferenceable(36) %call13, ptr noundef %call.i, i64 noundef %call2.i) #27
  br label %if.end

if.else:                                          ; preds = %_ZN4llvh11raw_ostreamlsEPKc.exit18
  %OutBufEnd.i5.i21 = getelementptr inbounds i8, ptr %call13, i64 16
  %13 = load ptr, ptr %OutBufEnd.i5.i21, align 8
  %OutBufCur.i6.i22 = getelementptr inbounds i8, ptr %call13, i64 24
  %14 = load ptr, ptr %OutBufCur.i6.i22, align 8
  %sub.ptr.lhs.cast.i7.i23 = ptrtoint ptr %13 to i64
  %sub.ptr.rhs.cast.i8.i24 = ptrtoint ptr %14 to i64
  %sub.ptr.sub.i9.i25 = sub i64 %sub.ptr.lhs.cast.i7.i23, %sub.ptr.rhs.cast.i8.i24
  %cmp.i.i26 = icmp ult i64 %sub.ptr.sub.i9.i25, 12
  br i1 %cmp.i.i26, label %if.then.i.i32, label %if.then4.i.i29

if.then.i.i32:                                    ; preds = %if.else
  %call3.i.i33 = tail call noundef nonnull align 8 dereferenceable(36) ptr @_ZN4llvh11raw_ostream5writeEPKcm(ptr noundef nonnull align 8 dereferenceable(36) %call13, ptr noundef nonnull @.str.32, i64 noundef 12) #27
  br label %if.end

if.then4.i.i29:                                   ; preds = %if.else
  tail call void @llvm.memcpy.p0.p0.i64(ptr noundef nonnull align 1 dereferenceable(12) %14, ptr noundef nonnull align 1 dereferenceable(12) @.str.32, i64 12, i1 false)
  %15 = load ptr, ptr %OutBufCur.i6.i22, align 8
  %add.ptr.i.i30 = getelementptr inbounds i8, ptr %15, i64 12
  store ptr %add.ptr.i.i30, ptr %OutBufCur.i6.i22, align 8
  br label %if.end

if.end:                                           ; preds = %if.then4.i.i29, %if.then.i.i32, %if.then
  %call15 = tail call noundef nonnull align 8 dereferenceable(36) ptr @_ZN4llvh4outsEv() #27
  %OutBufEnd.i5.i36 = getelementptr inbounds i8, ptr %call15, i64 16
  %16 = load ptr, ptr %OutBufEnd.i5.i36, align 8
  %OutBufCur.i6.i37 = getelementptr inbounds i8, ptr %call15, i64 24
  %17 = load ptr, ptr %OutBufCur.i6.i37, align 8
  %sub.ptr.lhs.cast.i7.i38 = ptrtoint ptr %16 to i64
  %sub.ptr.rhs.cast.i8.i39 = ptrtoint ptr %17 to i64
  %sub.ptr.sub.i9.i40 = sub i64 %sub.ptr.lhs.cast.i7.i38, %sub.ptr.rhs.cast.i8.i39
  %cmp.i.i41 = icmp ult i64 %sub.ptr.sub.i9.i40, 2
  br i1 %cmp.i.i41, label %if.then.i.i47, label %if.then4.i.i44

if.then.i.i47:                                    ; preds = %if.end
  %call3.i.i48 = tail call noundef nonnull align 8 dereferenceable(36) ptr @_ZN4llvh11raw_ostream5writeEPKcm(ptr noundef nonnull align 8 dereferenceable(36) %call15, ptr noundef nonnull @.str.30, i64 noundef 2) #27
  br label %_ZN4llvh11raw_ostreamlsEPKc.exit49

if.then4.i.i44:                                   ; preds = %if.end
  store i16 2601, ptr %17, align 1
  %18 = load ptr, ptr %OutBufCur.i6.i37, align 8
  %add.ptr.i.i45 = getelementptr inbounds i8, ptr %18, i64 2
  store ptr %add.ptr.i.i45, ptr %OutBufCur.i6.i37, align 8
  br label %_ZN4llvh11raw_ostreamlsEPKc.exit49

_ZN4llvh11raw_ostreamlsEPKc.exit49:               ; preds = %if.then.i.i47, %if.then4.i.i44
  ret void
}